Certificate:
    Data:
        Version: 3 (0x2)
        Serial Number: 4096 (0x1000)
    Signature Algorithm: md5WithRSAEncryption
        Issuer: C=us, ST=utah, L=slc, O=uofu, OU=cs, CN=cert/emailAddress=wnielsen@cs.utah.edu
        Validity
            Not Before: Mar 19 17:56:37 2020 GMT
            Not After : Mar 19 17:56:37 2021 GMT
        Subject: C=us, ST=utah, O=uofu, OU=cs, CN=server/emailAddress=wnielsen@cs.utah.edu
        Subject Public Key Info:
            Public Key Algorithm: rsaEncryption
                Public-Key: (4096 bit)
                Modulus:
                    00:f9:1a:39:8b:36:9a:38:a4:49:74:09:e5:5e:01:
                    9d:c4:2c:35:de:d8:d1:69:7e:a5:db:96:04:cb:32:
                    0d:f2:09:23:9b:33:69:22:f0:9f:77:a6:99:62:87:
                    1b:f2:0b:fb:6a:af:34:41:a0:c5:8b:aa:4f:48:5b:
                    55:87:d6:c7:87:4d:95:32:62:2b:87:2d:ad:b1:7c:
                    99:6d:c4:d5:75:23:e7:a7:8f:67:c6:ef:dc:8c:59:
                    0c:48:c8:bf:b5:e1:57:9e:6e:5e:f0:69:19:5e:f3:
                    5a:4c:b6:65:42:05:05:80:20:f3:11:4f:38:cf:ed:
                    9b:a3:cb:16:2f:aa:46:a2:f4:22:b3:3c:9b:bc:f2:
                    8f:a9:be:a5:4e:83:f3:7d:c0:d4:ba:eb:91:27:db:
                    2d:d9:f1:cb:a5:4b:29:04:35:7a:5d:eb:10:a5:31:
                    77:cd:fe:43:52:7c:a4:c4:83:64:e5:7b:fe:06:b2:
                    07:61:61:06:9e:c0:e9:dc:ab:4c:9c:b1:f8:46:cf:
                    2b:36:70:4a:de:2c:83:13:83:97:59:6a:95:55:39:
                    2d:1a:7e:7e:27:a1:2d:51:5f:a0:45:12:6f:41:1d:
                    a1:64:7c:48:29:df:6c:03:b7:d4:55:66:20:05:1f:
                    f0:7c:f8:1d:75:ec:19:3d:fa:eb:70:ab:d2:67:4c:
                    73:87:e8:6e:08:bf:c7:b7:f6:cb:40:38:df:41:8b:
                    35:0d:28:d1:32:54:16:26:99:9b:92:02:41:95:0d:
                    09:bb:c8:f5:01:cd:0b:0f:99:49:ee:82:02:d4:b1:
                    b9:65:b0:3e:57:59:0f:f3:37:06:ed:0a:6a:c3:0b:
                    0c:9e:f7:d5:0a:fd:04:66:4e:45:5c:60:16:3e:a1:
                    d3:da:4f:17:be:5e:8c:54:02:e7:33:37:68:bd:a9:
                    c3:8a:16:ac:e1:83:95:96:5b:1f:dd:62:fc:5d:4a:
                    1e:6d:e6:b0:fd:b1:b9:e7:48:c2:33:f3:67:50:2e:
                    60:c8:ad:fa:64:ad:b4:b6:9b:5b:be:41:25:de:5c:
                    e0:ac:ef:7c:03:50:29:5d:f1:d6:34:4c:80:4e:55:
                    50:e2:6c:43:8b:70:03:29:96:52:50:a8:7c:49:2f:
                    76:37:46:b9:f8:83:b7:18:b7:9d:a8:fc:3f:43:f7:
                    eb:5e:c2:86:d2:93:f4:ba:15:5c:c6:32:9d:5d:fc:
                    48:d3:24:10:64:bc:55:a3:cb:cc:b6:ed:ea:16:4e:
                    a7:dc:fb:9d:97:ca:7a:bd:6f:43:bc:78:cd:25:59:
                    86:4e:78:e1:87:85:dd:20:3c:b0:13:e4:4b:21:a0:
                    bb:21:7d:3b:67:00:4d:13:3b:43:0e:9e:d6:d0:f7:
                    70:85:2b
                Exponent: 65537 (0x10001)
        X509v3 extensions:
            X509v3 Basic Constraints: 
                CA:FALSE
            Netscape Comment: 
                OpenSSL Generated Certificate
            X509v3 Subject Key Identifier: 
                81:F0:EE:58:C1:5C:17:AA:A0:34:0F:83:E0:D2:49:F9:55:0C:56:28
            X509v3 Authority Key Identifier: 
                DirName:/C=us/ST=utah/L=slc/O=uofu/OU=cs/CN=cert/emailAddress=wnielsen@cs.utah.edu
                serial:C6:C6:E2:58:BC:91:4F:C0

    Signature Algorithm: md5WithRSAEncryption
         6a:05:69:40:ba:15:0e:ad:9c:81:72:de:64:c5:9d:c8:01:f4:
         ba:6c:d2:07:3a:f0:ba:a0:06:e1:59:1c:33:05:cd:eb:d0:f6:
         59:3b:04:4e:76:32:3c:7b:a3:3a:6e:cb:f8:49:6c:88:63:ec:
         ac:ba:dc:d4:fe:6e:04:94:fa:61:20:4d:9d:eb:d8:7c:2c:d9:
         5a:07:22:1a:26:ef:4b:13:12:4a:ac:62:b1:ab:ce:f2:34:7b:
         0c:13:54:50:cb:52:08:5b:eb:a9:0a:d8:5f:8d:90:cd:e6:8d:
         44:ae:c9:c3:85:5c:1c:b9:a2:c7:90:c3:7a:cc:1d:7f:9f:bf:
         0a:cc:91:d3:a4:77:2c:c4:a6:bf:36:82:21:d9:0e:4d:52:33:
         0a:8d:62:5e:19:f6:3f:82:8a:6f:a0:4f:3b:94:2c:a0:34:37:
         c8:56:33:ea:c7:14:39:08:c5:3b:21:6f:ba:a5:e2:7b:f2:c1:
         52:98:6d:36:6c:72:38:03:f9:f2:e4:39:81:4d:c1:fb:19:4b:
         41:a4:d0:a7:93:e7:4e:3b:8d:c7:3a:33:76:f4:7c:a4:1c:b8:
         9f:e7:6c:88:e8:c2:dc:58:b4:13:b2:7a:0f:10:92:1c:ea:e4:
         84:21:30:61:ad:ee:cc:2e:cb:5b:ae:02:98:9c:86:d0:d0:4d:
         07:12:c1:2b:fa:4e:cb:d7:33:e5:a0:f1:72:71:a9:30:fe:f2:
         45:58:64:e0:24:f8:2a:33:8f:c0:12:78:ba:a2:45:58:49:74:
         17:bd:46:ae:ab:66:9d:f7:20:ae:43:72:6a:ee:7d:a4:4b:27:
         eb:7d:be:8a:db:ed:ee:0c:97:7b:3b:69:ad:24:9b:99:c4:e3:
         2d:3b:3b:e8:dc:2a:9b:e6:dd:85:32:6a:5b:07:88:eb:17:f8:
         d1:25:90:89:3b:45:79:11:23:bc:01:d2:81:3b:2d:3e:81:4c:
         d8:dc:f2:eb:4e:39:4d:a2:03:e5:ef:98:37:d6:e2:b0:e8:01:
         22:5e:dd:25:f7:70:3c:18:31:0a:93:66:fd:eb:6c:db:7d:1f:
         1d:87:5a:3d:67:e9:19:93:c7:08:01:b2:b4:90:d8:53:78:bb:
         be:e3:a0:96:00:60:39:de:90:cb:e9:de:dc:49:f0:62:a7:10:
         8d:dd:ff:45:d4:f2:90:32:fa:f4:30:b0:c6:b1:f5:4a:5c:4d:
         95:86:32:87:ac:0b:c4:50:c0:4f:22:18:1b:11:31:f6:8b:1c:
         d4:ad:a0:1b:ce:6e:79:ef:0a:21:60:9a:5e:26:9a:24:88:3e:
         fb:1e:8e:ab:1d:e4:11:50:3d:d2:19:58:35:42:1e:5d:f3:7f:
         c5:00:f2:47:b9:19:6d:00
-----BEGIN CERTIFICATE-----
MIIGWTCCBEGgAwIBAgICEAAwDQYJKoZIhvcNAQEEBQAwejELMAkGA1UEBhMCdXMx
DTALBgNVBAgMBHV0YWgxDDAKBgNVBAcMA3NsYzENMAsGA1UECgwEdW9mdTELMAkG
A1UECwwCY3MxDTALBgNVBAMMBGNlcnQxIzAhBgkqhkiG9w0BCQEWFHduaWVsc2Vu
QGNzLnV0YWguZWR1MB4XDTIwMDMxOTE3NTYzN1oXDTIxMDMxOTE3NTYzN1owbjEL
MAkGA1UEBhMCdXMxDTALBgNVBAgMBHV0YWgxDTALBgNVBAoMBHVvZnUxCzAJBgNV
BAsMAmNzMQ8wDQYDVQQDDAZzZXJ2ZXIxIzAhBgkqhkiG9w0BCQEWFHduaWVsc2Vu
QGNzLnV0YWguZWR1MIICIjANBgkqhkiG9w0BAQEFAAOCAg8AMIICCgKCAgEA+Ro5
izaaOKRJdAnlXgGdxCw13tjRaX6l25YEyzIN8gkjmzNpIvCfd6aZYocb8gv7aq80
QaDFi6pPSFtVh9bHh02VMmIrhy2tsXyZbcTVdSPnp49nxu/cjFkMSMi/teFXnm5e
8GkZXvNaTLZlQgUFgCDzEU84z+2bo8sWL6pGovQiszybvPKPqb6lToPzfcDUuuuR
J9st2fHLpUspBDV6XesQpTF3zf5DUnykxINk5Xv+BrIHYWEGnsDp3KtMnLH4Rs8r
NnBK3iyDE4OXWWqVVTktGn5+J6EtUV+gRRJvQR2hZHxIKd9sA7fUVWYgBR/wfPgd
dewZPfrrcKvSZ0xzh+huCL/Ht/bLQDjfQYs1DSjRMlQWJpmbkgJBlQ0Ju8j1Ac0L
D5lJ7oIC1LG5ZbA+V1kP8zcG7QpqwwsMnvfVCv0EZk5FXGAWPqHT2k8Xvl6MVALn
MzdovanDihas4YOVllsf3WL8XUoebeaw/bG550jCM/NnUC5gyK36ZK20tptbvkEl
3lzgrO98A1ApXfHWNEyATlVQ4mxDi3ADKZZSUKh8SS92N0a5+IO3GLedqPw/Q/fr
XsKG0pP0uhVcxjKdXfxI0yQQZLxVo8vMtu3qFk6n3Pudl8p6vW9DvHjNJVmGTnjh
h4XdIDywE+RLIaC7IX07ZwBNEztDDp7W0PdwhSsCAwEAAaOB9DCB8TAJBgNVHRME
AjAAMCwGCWCGSAGG+EIBDQQfFh1PcGVuU1NMIEdlbmVyYXRlZCBDZXJ0aWZpY2F0
ZTAdBgNVHQ4EFgQUgfDuWMFcF6qgNA+D4NJJ+VUMVigwgZYGA1UdIwSBjjCBi6F+
pHwwejELMAkGA1UEBhMCdXMxDTALBgNVBAgMBHV0YWgxDDAKBgNVBAcMA3NsYzEN
MAsGA1UECgwEdW9mdTELMAkGA1UECwwCY3MxDTALBgNVBAMMBGNlcnQxIzAhBgkq
hkiG9w0BCQEWFHduaWVsc2VuQGNzLnV0YWguZWR1ggkAxsbiWLyRT8AwDQYJKoZI
hvcNAQEEBQADggIBAGoFaUC6FQ6tnIFy3mTFncgB9Lps0gc68LqgBuFZHDMFzevQ
9lk7BE52Mjx7ozpuy/hJbIhj7Ky63NT+bgSU+mEgTZ3r2Hws2VoHIhom70sTEkqs
YrGrzvI0ewwTVFDLUghb66kK2F+NkM3mjUSuycOFXBy5oseQw3rMHX+fvwrMkdOk
dyzEpr82giHZDk1SMwqNYl4Z9j+Cim+gTzuULKA0N8hWM+rHFDkIxTshb7ql4nvy
wVKYbTZscjgD+fLkOYFNwfsZS0Gk0KeT5047jcc6M3b0fKQcuJ/nbIjowtxYtBOy
eg8Qkhzq5IQhMGGt7swuy1uuApichtDQTQcSwSv6TsvXM+Wg8XJxqTD+8kVYZOAk
+Cozj8ASeLqiRVhJdBe9Rq6rZp33IK5DcmrufaRLJ+t9vorb7e4Ml3s7aa0km5nE
4y07O+jcKpvm3YUyalsHiOsX+NElkIk7RXkRI7wB0oE7LT6BTNjc8utOOU2iA+Xv
mDfW4rDoASJe3SX3cDwYMQqTZv3rbNt9Hx2HWj1n6RmTxwgBsrSQ2FN4u77joJYA
YDnekMvp3txJ8GKnEI3d/0XU8pAy+vQwsMax9UpcTZWGMoesC8RQwE8iGBsRMfaL
HNStoBvObnnvCiFgml4mmiSIPvsejqsd5BFQPdIZWDVCHl3zf8UA8ke5GW0A
-----END CERTIFICATE-----
