Certificate:
    Data:
        Version: 3 (0x2)
        Serial Number: 4097 (0x1001)
    Signature Algorithm: md5WithRSAEncryption
        Issuer: C=us, ST=utah, L=slc, O=uofu, OU=cs, CN=cert/emailAddress=wnielsen@cs.utah.edu
        Validity
            Not Before: Mar 19 17:57:20 2020 GMT
            Not After : Mar 19 17:57:20 2021 GMT
        Subject: C=us, ST=utah, O=uofu, OU=cs, CN=client/emailAddress=wnielsen@cs.utah.edu
        Subject Public Key Info:
            Public Key Algorithm: rsaEncryption
                Public-Key: (4096 bit)
                Modulus:
                    00:e1:62:8c:52:2b:19:4c:29:a2:1e:53:5c:02:d9:
                    e8:11:1f:9c:50:e2:0f:c7:60:bf:e9:58:08:b7:c8:
                    49:93:5f:ad:e6:58:01:f6:01:bd:a7:1e:68:a6:70:
                    4e:6a:70:8a:25:d1:ce:71:f3:47:88:c0:e6:69:d9:
                    26:5f:1f:c2:fe:51:ae:ab:ce:19:44:b3:0b:a8:4c:
                    a4:35:59:88:a9:e2:f8:72:26:1c:e0:ed:01:f5:27:
                    29:34:c4:b8:55:a8:d9:24:cd:28:2f:48:a3:c5:34:
                    61:8d:97:d3:c8:69:83:3c:42:6c:e2:63:ce:bc:3d:
                    2e:e2:ae:4b:44:a9:7e:a2:24:42:9e:c1:a5:e6:c0:
                    42:be:67:6d:4b:0c:ff:0c:10:9a:7f:ca:1a:80:70:
                    63:5e:42:65:8c:d9:5c:e5:a9:49:f4:ba:f9:1f:1f:
                    67:90:a6:c8:6b:36:04:ee:24:1a:bd:d7:0a:32:02:
                    01:2c:46:5a:64:24:00:55:9b:77:4a:85:fa:17:f8:
                    a4:3c:a1:d7:fb:77:bb:17:0c:ea:e0:f9:79:19:cb:
                    c8:b2:4b:e0:4f:e8:71:72:ba:a6:a9:6e:89:7f:9a:
                    7b:58:66:09:25:0e:72:b0:8c:3b:b5:41:a8:df:01:
                    f5:c5:bf:c0:aa:b2:75:99:6c:47:b5:a4:3e:7c:d6:
                    23:cd:c5:30:f8:40:0a:be:fb:01:ff:c1:51:cb:a3:
                    4b:48:90:dc:00:f6:4d:92:8d:ff:4a:b7:84:b9:1c:
                    ea:1c:61:89:78:79:84:d7:40:e1:4f:a9:b1:04:2b:
                    99:7c:eb:8f:c8:b9:0f:aa:77:7b:4c:cf:b4:fa:61:
                    18:23:c4:f2:fd:4f:c0:52:c1:0e:af:5d:c5:9f:ea:
                    8b:8d:aa:ff:42:2d:5b:97:1d:22:ec:32:96:d9:28:
                    47:a2:4b:d6:6a:88:21:fe:85:b2:fe:04:ed:cf:53:
                    35:c0:6a:d0:5b:12:36:05:80:de:4a:34:e1:f4:46:
                    1f:8f:5f:e7:5a:d9:8b:56:7b:69:d2:09:3b:a6:da:
                    3e:6a:62:f6:08:dd:a1:47:fc:fe:1d:e5:c9:32:2c:
                    a0:fe:04:05:ae:c6:5a:7c:a1:b9:c1:9a:5b:25:02:
                    59:a0:e1:1f:78:2c:51:3d:09:d7:9a:1e:8c:ef:ff:
                    eb:b8:4c:4a:c3:11:c0:0f:ec:92:71:2b:5e:ec:25:
                    39:35:be:ce:e1:57:e0:a6:c1:a0:cf:a8:55:a9:5a:
                    86:8c:cc:95:3c:6b:a3:4a:13:eb:f3:71:d2:bc:f8:
                    86:81:f5:0a:21:87:88:c6:cb:07:7e:77:98:c5:78:
                    06:78:d8:d2:a8:8a:17:8c:e3:cf:36:64:f4:73:6d:
                    95:aa:51
                Exponent: 65537 (0x10001)
        X509v3 extensions:
            X509v3 Basic Constraints: 
                CA:FALSE
            Netscape Comment: 
                OpenSSL Generated Certificate
            X509v3 Subject Key Identifier: 
                58:5F:8C:6F:45:A6:AD:43:AA:2B:84:1F:71:07:1B:A5:16:14:2F:87
            X509v3 Authority Key Identifier: 
                DirName:/C=us/ST=utah/L=slc/O=uofu/OU=cs/CN=cert/emailAddress=wnielsen@cs.utah.edu
                serial:C6:C6:E2:58:BC:91:4F:C0

    Signature Algorithm: md5WithRSAEncryption
         44:db:82:11:56:41:f3:03:38:b2:c0:f2:56:f8:f5:72:42:fd:
         ea:65:70:7e:6a:c3:ba:a4:92:e8:8e:ba:ee:57:49:e3:5b:6e:
         d5:a8:ad:52:e3:30:a6:57:f0:5d:d4:a4:4f:74:6a:5d:ef:10:
         8c:a7:5b:58:30:3d:64:bc:6b:56:d8:50:3a:03:63:79:6c:4c:
         81:64:7f:1a:fe:c6:d0:4c:82:f8:9d:d3:2a:77:47:1c:f4:9f:
         f5:d7:49:96:f5:5a:e9:e2:1b:e4:9a:2f:36:fe:d9:d2:4e:b1:
         0b:6a:c5:a0:9a:a2:c3:0a:26:7e:ef:1f:82:73:2a:6d:36:8d:
         6a:60:40:e3:37:1c:ff:c9:cf:15:27:b3:8d:55:11:3f:87:6f:
         af:62:b1:f1:75:e5:f5:03:00:2b:89:d2:19:1e:74:63:12:9d:
         40:7d:79:17:03:53:fc:a0:f8:37:d8:8a:cb:5d:ea:37:15:91:
         79:9c:7f:4a:bd:69:96:ea:cf:0d:9b:e5:2c:79:cb:a6:f0:96:
         c8:eb:8f:20:a3:be:a6:36:4f:61:a4:62:08:9d:00:ab:ba:27:
         a9:0e:13:0d:ad:03:9c:8f:ff:a9:b5:af:32:92:f8:5a:8f:58:
         8c:fc:48:96:0c:6c:6e:a8:ae:f1:d7:82:d5:22:37:47:ab:e2:
         8b:2a:47:da:7b:0e:86:47:1c:40:e5:fa:48:43:ca:89:15:60:
         dc:3c:85:7a:d8:af:14:bf:fc:75:dd:eb:3c:38:e9:02:c1:7a:
         de:c1:81:d1:55:0e:c2:92:ac:e3:3e:5b:92:e3:7d:7c:be:94:
         23:47:9d:bf:5a:6c:a2:94:a7:38:9e:b6:1b:74:3e:02:a1:66:
         d5:39:c6:65:8b:8b:b7:03:61:e5:e5:21:5c:b5:7f:81:b8:0e:
         81:ff:fd:e3:39:8c:4c:50:1c:96:27:a3:6a:b3:27:8e:09:aa:
         c1:0d:0b:b4:ef:c6:ff:f4:6c:ce:46:dd:12:d6:f5:78:76:fc:
         97:40:ac:d6:a1:43:d4:75:d9:65:ba:fb:30:be:95:4c:19:a7:
         d1:c0:9a:5a:3a:33:65:b2:b5:0f:bd:a7:fd:7d:d5:07:db:38:
         31:39:d8:e5:8b:b7:00:9f:08:b0:ff:d7:51:ca:83:78:ef:d4:
         03:3e:85:1f:1f:bc:b0:3f:b0:a4:b5:37:d1:3b:08:5e:f6:d5:
         6b:79:d7:c0:27:14:e0:ee:f3:28:27:36:f0:93:71:f9:e1:f2:
         1e:85:0d:0b:30:6d:a3:fc:ed:56:a9:8c:4a:e5:55:79:b9:12:
         c2:0f:7e:56:ef:af:d1:33:58:d1:f2:2b:11:e5:e6:3e:8c:16:
         1b:b2:9a:22:ee:11:b5:69
-----BEGIN CERTIFICATE-----
MIIGWTCCBEGgAwIBAgICEAEwDQYJKoZIhvcNAQEEBQAwejELMAkGA1UEBhMCdXMx
DTALBgNVBAgMBHV0YWgxDDAKBgNVBAcMA3NsYzENMAsGA1UECgwEdW9mdTELMAkG
A1UECwwCY3MxDTALBgNVBAMMBGNlcnQxIzAhBgkqhkiG9w0BCQEWFHduaWVsc2Vu
QGNzLnV0YWguZWR1MB4XDTIwMDMxOTE3NTcyMFoXDTIxMDMxOTE3NTcyMFowbjEL
MAkGA1UEBhMCdXMxDTALBgNVBAgMBHV0YWgxDTALBgNVBAoMBHVvZnUxCzAJBgNV
BAsMAmNzMQ8wDQYDVQQDDAZjbGllbnQxIzAhBgkqhkiG9w0BCQEWFHduaWVsc2Vu
QGNzLnV0YWguZWR1MIICIjANBgkqhkiG9w0BAQEFAAOCAg8AMIICCgKCAgEA4WKM
UisZTCmiHlNcAtnoER+cUOIPx2C/6VgIt8hJk1+t5lgB9gG9px5opnBOanCKJdHO
cfNHiMDmadkmXx/C/lGuq84ZRLMLqEykNVmIqeL4ciYc4O0B9ScpNMS4VajZJM0o
L0ijxTRhjZfTyGmDPEJs4mPOvD0u4q5LRKl+oiRCnsGl5sBCvmdtSwz/DBCaf8oa
gHBjXkJljNlc5alJ9Lr5Hx9nkKbIazYE7iQavdcKMgIBLEZaZCQAVZt3SoX6F/ik
PKHX+3e7Fwzq4Pl5GcvIskvgT+hxcrqmqW6Jf5p7WGYJJQ5ysIw7tUGo3wH1xb/A
qrJ1mWxHtaQ+fNYjzcUw+EAKvvsB/8FRy6NLSJDcAPZNko3/SreEuRzqHGGJeHmE
10DhT6mxBCuZfOuPyLkPqnd7TM+0+mEYI8Ty/U/AUsEOr13Fn+qLjar/Qi1blx0i
7DKW2ShHokvWaogh/oWy/gTtz1M1wGrQWxI2BYDeSjTh9EYfj1/nWtmLVntp0gk7
pto+amL2CN2hR/z+HeXJMiyg/gQFrsZafKG5wZpbJQJZoOEfeCxRPQnXmh6M7//r
uExKwxHAD+yScSte7CU5Nb7O4VfgpsGgz6hVqVqGjMyVPGujShPr83HSvPiGgfUK
IYeIxssHfneYxXgGeNjSqIoXjOPPNmT0c22VqlECAwEAAaOB9DCB8TAJBgNVHRME
AjAAMCwGCWCGSAGG+EIBDQQfFh1PcGVuU1NMIEdlbmVyYXRlZCBDZXJ0aWZpY2F0
ZTAdBgNVHQ4EFgQUWF+Mb0WmrUOqK4QfcQcbpRYUL4cwgZYGA1UdIwSBjjCBi6F+
pHwwejELMAkGA1UEBhMCdXMxDTALBgNVBAgMBHV0YWgxDDAKBgNVBAcMA3NsYzEN
MAsGA1UECgwEdW9mdTELMAkGA1UECwwCY3MxDTALBgNVBAMMBGNlcnQxIzAhBgkq
hkiG9w0BCQEWFHduaWVsc2VuQGNzLnV0YWguZWR1ggkAxsbiWLyRT8AwDQYJKoZI
hvcNAQEEBQADggIBAETbghFWQfMDOLLA8lb49XJC/eplcH5qw7qkkuiOuu5XSeNb
btWorVLjMKZX8F3UpE90al3vEIynW1gwPWS8a1bYUDoDY3lsTIFkfxr+xtBMgvid
0yp3Rxz0n/XXSZb1WuniG+SaLzb+2dJOsQtqxaCaosMKJn7vH4JzKm02jWpgQOM3
HP/JzxUns41VET+Hb69isfF15fUDACuJ0hkedGMSnUB9eRcDU/yg+DfYistd6jcV
kXmcf0q9aZbqzw2b5Sx5y6bwlsjrjyCjvqY2T2GkYgidAKu6J6kOEw2tA5yP/6m1
rzKS+FqPWIz8SJYMbG6orvHXgtUiN0er4osqR9p7DoZHHEDl+khDyokVYNw8hXrY
rxS//HXd6zw46QLBet7BgdFVDsKSrOM+W5LjfXy+lCNHnb9abKKUpzietht0PgKh
ZtU5xmWLi7cDYeXlIVy1f4G4DoH//eM5jExQHJYno2qzJ44JqsENC7Tvxv/0bM5G
3RLW9Xh2/JdArNahQ9R12WW6+zC+lUwZp9HAmlo6M2WytQ+9p/191QfbODE52OWL
twCfCLD/11HKg3jv1AM+hR8fvLA/sKS1N9E7CF721Wt518AnFODu8ygnNvCTcfnh
8h6FDQswbaP87VapjErlVXm5EsIPflbvr9EzWNHyKxHl5j6MFhuymiLuEbVp
-----END CERTIFICATE-----
